target datalayout = "e-m:e-p270:32:32-p271:32:32-p272:64:64-i64:64-i128:128-f80:128-n8:16:32:64-S128"
target triple = "x86_64-pc-linux-gnu"

%struct.mi_cache_slot_s = type { ptr, i64, i8, %struct.mi_commit_mask_s, %struct.mi_commit_mask_s, i64 }
%struct.mi_commit_mask_s = type { [16 x i64] }
%struct.mi_os_tld_s = type { i64, ptr }

@cache_available_large = internal global [16 x i64] [i64 -1, i64 -1, i64 -1, i64 -1, i64 -1, i64 -1, i64 -1, i64 -1, i64 -1, i64 -1, i64 -1, i64 -1, i64 -1, i64 -1, i64 -1, i64 -1], align 64
@cache_available = internal global [16 x i64] [i64 -1, i64 -1, i64 -1, i64 -1, i64 -1, i64 -1, i64 -1, i64 -1, i64 -1, i64 -1, i64 -1, i64 -1, i64 -1, i64 -1, i64 -1, i64 -1], align 64
@cache = internal global [1024 x %struct.mi_cache_slot_s] zeroinitializer, align 64
@cache_inuse = internal global [16 x i64] zeroinitializer, align 64
@_mi_numa_node_count = external global i64, align 8

; Function Attrs: inlinehint nounwind uwtable
define internal void @mi_commit_mask_create_empty(ptr noundef %0) #2 {
  %2 = alloca ptr, align 8
  %3 = alloca i64, align 8
  store ptr %0, ptr %2, align 8, !tbaa !7
  call void @llvm.lifetime.start.p0(i64 8, ptr %3) #8
  store i64 0, ptr %3, align 8, !tbaa !3
  br label %4

4:                                                ; preds = %13, %1
  %5 = load i64, ptr %3, align 8, !tbaa !3
  %6 = icmp ult i64 %5, 16
  br i1 %6, label %8, label %7

7:                                                ; preds = %4
  call void @llvm.lifetime.end.p0(i64 8, ptr %3) #8
  br label %16

8:                                                ; preds = %4
  %9 = load ptr, ptr %2, align 8, !tbaa !7
  %10 = getelementptr inbounds nuw %struct.mi_commit_mask_s, ptr %9, i32 0, i32 0
  %11 = load i64, ptr %3, align 8, !tbaa !3
  %12 = getelementptr inbounds nuw [16 x i64], ptr %10, i64 0, i64 %11
  store i64 0, ptr %12, align 8, !tbaa !3
  br label %13

13:                                               ; preds = %8
  %14 = load i64, ptr %3, align 8, !tbaa !3
  %15 = add i64 %14, 1
  store i64 %15, ptr %3, align 8, !tbaa !3
  br label %4, !llvm.loop !40

16:                                               ; preds = %7
  ret void
}

; Function Attrs: inlinehint nounwind uwtable
define internal zeroext i1 @mi_commit_mask_is_empty(ptr noundef %0) #2 {
  %2 = alloca i1, align 1
  %3 = alloca ptr, align 8
  %4 = alloca i64, align 8
  %5 = alloca i32, align 4
  store ptr %0, ptr %3, align 8, !tbaa !7
  call void @llvm.lifetime.start.p0(i64 8, ptr %4) #8
  store i64 0, ptr %4, align 8, !tbaa !3
  br label %6

6:                                                ; preds = %19, %1
  %7 = load i64, ptr %4, align 8, !tbaa !3
  %8 = icmp ult i64 %7, 16
  br i1 %8, label %10, label %9

9:                                                ; preds = %6
  store i32 2, ptr %5, align 4
  br label %22

10:                                               ; preds = %6
  %11 = load ptr, ptr %3, align 8, !tbaa !7
  %12 = getelementptr inbounds nuw %struct.mi_commit_mask_s, ptr %11, i32 0, i32 0
  %13 = load i64, ptr %4, align 8, !tbaa !3
  %14 = getelementptr inbounds nuw [16 x i64], ptr %12, i64 0, i64 %13
  %15 = load i64, ptr %14, align 8, !tbaa !3
  %16 = icmp ne i64 %15, 0
  br i1 %16, label %17, label %18

17:                                               ; preds = %10
  store i1 false, ptr %2, align 1
  store i32 1, ptr %5, align 4
  br label %22

18:                                               ; preds = %10
  br label %19

19:                                               ; preds = %18
  %20 = load i64, ptr %4, align 8, !tbaa !3
  %21 = add i64 %20, 1
  store i64 %21, ptr %4, align 8, !tbaa !3
  br label %6, !llvm.loop !37

22:                                               ; preds = %17, %9
  call void @llvm.lifetime.end.p0(i64 8, ptr %4) #8
  %23 = load i32, ptr %5, align 4
  switch i32 %23, label %27 [
    i32 2, label %24
    i32 1, label %25
  ]

24:                                               ; preds = %22
  store i1 true, ptr %2, align 1
  br label %25

25:                                               ; preds = %24, %22
  %26 = load i1, ptr %2, align 1
  ret i1 %26

27:                                               ; preds = %22
  unreachable
}

; Function Attrs: inlinehint nounwind uwtable
define internal i64 @mi_bitmap_index_bit(i64 noundef %0) #2 {
  %2 = alloca i64, align 8
  store i64 %0, ptr %2, align 8, !tbaa !3
  %3 = load i64, ptr %2, align 8, !tbaa !3
  ret i64 %3
}

; Function Attrs: inlinehint nounwind uwtable
define internal i64 @_mi_os_numa_node_count() #2 {
  %1 = alloca i64, align 8
  %2 = alloca i64, align 8
  %3 = alloca i64, align 8
  %4 = alloca i32, align 4
  call void @llvm.lifetime.start.p0(i64 8, ptr %2) #8
  %5 = load atomic i64, ptr @_mi_numa_node_count monotonic, align 8
  store i64 %5, ptr %3, align 8
  %6 = load i64, ptr %3, align 8, !tbaa !3
  store i64 %6, ptr %2, align 8, !tbaa !3
  %7 = load i64, ptr %2, align 8, !tbaa !3
  %8 = icmp ugt i64 %7, 0
  %9 = xor i1 %8, true
  %10 = xor i1 %9, true
  %11 = zext i1 %10 to i32
  %12 = sext i32 %11 to i64
  %13 = call i64 @llvm.expect.i64(i64 %12, i64 1)
  %14 = icmp ne i64 %13, 0
  br i1 %14, label %15, label %17

15:                                               ; preds = %0
  %16 = load i64, ptr %2, align 8, !tbaa !3
  store i64 %16, ptr %1, align 8
  store i32 1, ptr %4, align 4
  br label %19

17:                                               ; preds = %0
  %18 = call i64 @_mi_os_numa_node_count_get()
  store i64 %18, ptr %1, align 8
  store i32 1, ptr %4, align 4
  br label %19

19:                                               ; preds = %17, %15
  call void @llvm.lifetime.end.p0(i64 8, ptr %2) #8
  %20 = load i64, ptr %1, align 8
  ret i64 %20
}

; Function Attrs: inlinehint nounwind uwtable
define internal i32 @_mi_os_numa_node(ptr noundef %0) #2 {
  %2 = alloca i32, align 4
  %3 = alloca ptr, align 8
  %4 = alloca i64, align 8
  store ptr %0, ptr %3, align 8, !tbaa !14
  %5 = load atomic i64, ptr @_mi_numa_node_count monotonic, align 8
  store i64 %5, ptr %4, align 8
  %6 = load i64, ptr %4, align 8, !tbaa !3
  %7 = icmp eq i64 %6, 1
  %8 = xor i1 %7, true
  %9 = xor i1 %8, true
  %10 = zext i1 %9 to i32
  %11 = sext i32 %10 to i64
  %12 = call i64 @llvm.expect.i64(i64 %11, i64 1)
  %13 = icmp ne i64 %12, 0
  br i1 %13, label %14, label %15

14:                                               ; preds = %1
  store i32 0, ptr %2, align 4
  br label %18

15:                                               ; preds = %1
  %16 = load ptr, ptr %3, align 8, !tbaa !14
  %17 = call i32 @_mi_os_numa_node_get(ptr noundef %16)
  store i32 %17, ptr %2, align 4
  br label %18

18:                                               ; preds = %15, %14
  %19 = load i32, ptr %2, align 4
  ret i32 %19
}

; Function Attrs: noinline nounwind uwtable
define hidden zeroext i1 @_mi_segment_cache_push(ptr noundef %0, i64 noundef %1, i64 noundef %2, ptr noundef %3, ptr noundef %4, i1 noundef zeroext %5, i1 noundef zeroext %6, ptr noundef %7) #0 {
  %9 = alloca i1, align 1
  %10 = alloca ptr, align 8
  %11 = alloca i64, align 8
  %12 = alloca i64, align 8
  %13 = alloca ptr, align 8
  %14 = alloca ptr, align 8
  %15 = alloca i8, align 1
  %16 = alloca i8, align 1
  %17 = alloca ptr, align 8
  %18 = alloca i32, align 4
  %19 = alloca i64, align 8
  %20 = alloca i64, align 8
  %21 = alloca i8, align 1
  %22 = alloca i32, align 4
  %23 = alloca ptr, align 8
  %24 = alloca i64, align 8
  %25 = alloca i64, align 8
  %26 = alloca i64, align 8
  store ptr %0, ptr %10, align 8, !tbaa !27
  store i64 %1, ptr %11, align 8, !tbaa !3
  store i64 %2, ptr %12, align 8, !tbaa !3
  store ptr %3, ptr %13, align 8, !tbaa !7
  store ptr %4, ptr %14, align 8, !tbaa !7
  %27 = zext i1 %5 to i8
  store i8 %27, ptr %15, align 1, !tbaa !18
  %28 = zext i1 %6 to i8
  store i8 %28, ptr %16, align 1, !tbaa !18
  store ptr %7, ptr %17, align 8, !tbaa !14
  %29 = load i64, ptr %11, align 8, !tbaa !3
  %30 = icmp ne i64 %29, 67108864
  br i1 %30, label %36, label %31

31:                                               ; preds = %8
  %32 = load ptr, ptr %10, align 8, !tbaa !27
  %33 = ptrtoint ptr %32 to i64
  %34 = urem i64 %33, 67108864
  %35 = icmp ne i64 %34, 0
  br i1 %35, label %36, label %37

36:                                               ; preds = %31, %8
  store i1 false, ptr %9, align 1
  br label %121

37:                                               ; preds = %31
  call void @llvm.lifetime.start.p0(i64 4, ptr %18) #8
  %38 = call i32 @_mi_os_numa_node(ptr noundef null)
  store i32 %38, ptr %18, align 4, !tbaa !16
  call void @llvm.lifetime.start.p0(i64 8, ptr %19) #8
  store i64 0, ptr %19, align 8, !tbaa !3
  %39 = load i32, ptr %18, align 4, !tbaa !16
  %40 = icmp sgt i32 %39, 0
  br i1 %40, label %41, label %51

41:                                               ; preds = %37
  %42 = call i64 @_mi_os_numa_node_count()
  %43 = udiv i64 16, %42
  %44 = load i32, ptr %18, align 4, !tbaa !16
  %45 = sext i32 %44 to i64
  %46 = mul i64 %43, %45
  store i64 %46, ptr %19, align 8, !tbaa !3
  %47 = load i64, ptr %19, align 8, !tbaa !3
  %48 = icmp uge i64 %47, 16
  br i1 %48, label %49, label %50

49:                                               ; preds = %41
  store i64 0, ptr %19, align 8, !tbaa !3
  br label %50

50:                                               ; preds = %49, %41
  br label %51

51:                                               ; preds = %50, %37
  %52 = load ptr, ptr %17, align 8, !tbaa !14
  call void @mi_segment_cache_purge(i1 noundef zeroext false, ptr noundef %52)
  call void @llvm.lifetime.start.p0(i64 8, ptr %20) #8
  call void @llvm.lifetime.start.p0(i64 1, ptr %21) #8
  %53 = load i64, ptr %19, align 8, !tbaa !3
  %54 = call zeroext i1 @_mi_bitmap_try_find_from_claim(ptr noundef @cache_inuse, i64 noundef 16, i64 noundef %53, i64 noundef 1, ptr noundef %20)
  %55 = zext i1 %54 to i8
  store i8 %55, ptr %21, align 1, !tbaa !18
  %56 = load i8, ptr %21, align 1, !tbaa !18, !range !20, !noundef !21
  %57 = trunc i8 %56 to i1
  br i1 %57, label %59, label %58

58:                                               ; preds = %51
  store i1 false, ptr %9, align 1
  store i32 1, ptr %22, align 4
  br label %120

59:                                               ; preds = %51
  call void @llvm.lifetime.start.p0(i64 8, ptr %23) #8
  %60 = load i64, ptr %20, align 8, !tbaa !3
  %61 = call i64 @mi_bitmap_index_bit(i64 noundef %60)
  %62 = getelementptr inbounds nuw [1024 x %struct.mi_cache_slot_s], ptr @cache, i64 0, i64 %61
  store ptr %62, ptr %23, align 8, !tbaa !22
  %63 = load ptr, ptr %10, align 8, !tbaa !27
  %64 = load ptr, ptr %23, align 8, !tbaa !22
  %65 = getelementptr inbounds nuw %struct.mi_cache_slot_s, ptr %64, i32 0, i32 0
  store ptr %63, ptr %65, align 8, !tbaa !24
  %66 = load i64, ptr %12, align 8, !tbaa !3
  %67 = load ptr, ptr %23, align 8, !tbaa !22
  %68 = getelementptr inbounds nuw %struct.mi_cache_slot_s, ptr %67, i32 0, i32 1
  store i64 %66, ptr %68, align 8, !tbaa !28
  %69 = load i8, ptr %16, align 1, !tbaa !18, !range !20, !noundef !21
  %70 = trunc i8 %69 to i1
  %71 = load ptr, ptr %23, align 8, !tbaa !22
  %72 = getelementptr inbounds nuw %struct.mi_cache_slot_s, ptr %71, i32 0, i32 2
  %73 = zext i1 %70 to i8
  store i8 %73, ptr %72, align 8, !tbaa !29
  %74 = load ptr, ptr %23, align 8, !tbaa !22
  %75 = getelementptr inbounds nuw %struct.mi_cache_slot_s, ptr %74, i32 0, i32 5
  store i64 0, ptr %24, align 8, !tbaa !3
  %76 = load i64, ptr %24, align 8
  store atomic i64 %76, ptr %75 monotonic, align 8
  %77 = load ptr, ptr %23, align 8, !tbaa !22
  %78 = getelementptr inbounds nuw %struct.mi_cache_slot_s, ptr %77, i32 0, i32 3
  %79 = load ptr, ptr %13, align 8, !tbaa !7
  call void @llvm.memcpy.p0.p0.i64(ptr align 8 %78, ptr align 8 %79, i64 128, i1 false), !tbaa.struct !30
  %80 = load ptr, ptr %23, align 8, !tbaa !22
  %81 = getelementptr inbounds nuw %struct.mi_cache_slot_s, ptr %80, i32 0, i32 4
  %82 = load ptr, ptr %14, align 8, !tbaa !7
  call void @llvm.memcpy.p0.p0.i64(ptr align 8 %81, ptr align 8 %82, i64 128, i1 false), !tbaa.struct !30
  %83 = load ptr, ptr %13, align 8, !tbaa !7
  %84 = call zeroext i1 @mi_commit_mask_is_empty(ptr noundef %83)
  br i1 %84, label %114, label %85

85:                                               ; preds = %59
  %86 = load i8, ptr %15, align 1, !tbaa !18, !range !20, !noundef !21
  %87 = trunc i8 %86 to i1
  br i1 %87, label %114, label %88

88:                                               ; preds = %85
  %89 = load i8, ptr %16, align 1, !tbaa !18, !range !20, !noundef !21
  %90 = trunc i8 %89 to i1
  br i1 %90, label %114, label %91

91:                                               ; preds = %88
  %92 = call zeroext i1 @mi_option_is_enabled(i32 noundef 22)
  br i1 %92, label %93, label %114

93:                                               ; preds = %91
  call void @llvm.lifetime.start.p0(i64 8, ptr %25) #8
  %94 = call i64 @mi_option_get(i32 noundef 23)
  store i64 %94, ptr %25, align 8, !tbaa !3
  %95 = load i64, ptr %25, align 8, !tbaa !3
  %96 = icmp eq i64 %95, 0
  br i1 %96, label %97, label %106

97:                                               ; preds = %93
  call void @_mi_abandoned_await_readers()
  %98 = load ptr, ptr %23, align 8, !tbaa !22
  %99 = getelementptr inbounds nuw %struct.mi_cache_slot_s, ptr %98, i32 0, i32 3
  %100 = load ptr, ptr %10, align 8, !tbaa !27
  %101 = load ptr, ptr %17, align 8, !tbaa !14
  %102 = getelementptr inbounds nuw %struct.mi_os_tld_s, ptr %101, i32 0, i32 1
  %103 = load ptr, ptr %102, align 8, !tbaa !32
  call void @mi_commit_mask_decommit(ptr noundef %99, ptr noundef %100, i64 noundef 67108864, ptr noundef %103)
  %104 = load ptr, ptr %23, align 8, !tbaa !22
  %105 = getelementptr inbounds nuw %struct.mi_cache_slot_s, ptr %104, i32 0, i32 4
  call void @mi_commit_mask_create_empty(ptr noundef %105)
  br label %113

106:                                              ; preds = %93
  %107 = load ptr, ptr %23, align 8, !tbaa !22
  %108 = getelementptr inbounds nuw %struct.mi_cache_slot_s, ptr %107, i32 0, i32 5
  %109 = call i64 @_mi_clock_now()
  %110 = load i64, ptr %25, align 8, !tbaa !3
  %111 = add nsw i64 %109, %110
  store i64 %111, ptr %26, align 8, !tbaa !3
  %112 = load i64, ptr %26, align 8
  store atomic i64 %112, ptr %108 release, align 8
  br label %113

113:                                              ; preds = %106, %97
  call void @llvm.lifetime.end.p0(i64 8, ptr %25) #8
  br label %114

114:                                              ; preds = %113, %91, %88, %85, %59
  %115 = load i8, ptr %15, align 1, !tbaa !18, !range !20, !noundef !21
  %116 = trunc i8 %115 to i1
  %117 = select i1 %116, ptr @cache_available_large, ptr @cache_available
  %118 = load i64, ptr %20, align 8, !tbaa !3
  %119 = call zeroext i1 @_mi_bitmap_unclaim(ptr noundef %117, i64 noundef 16, i64 noundef 1, i64 noundef %118)
  store i1 true, ptr %9, align 1
  store i32 1, ptr %22, align 4
  call void @llvm.lifetime.end.p0(i64 8, ptr %23) #8
  br label %120

120:                                              ; preds = %114, %58
  call void @llvm.lifetime.end.p0(i64 1, ptr %21) #8
  call void @llvm.lifetime.end.p0(i64 8, ptr %20) #8
  call void @llvm.lifetime.end.p0(i64 8, ptr %19) #8
  call void @llvm.lifetime.end.p0(i64 4, ptr %18) #8
  br label %121

121:                                              ; preds = %120, %36
  %122 = load i1, ptr %9, align 1
  ret i1 %122
}