; Function Attrs: noinline nounwind uwtable
define hidden noundef zeroext i1 @_mi_segment_cache_push(ptr noundef %0, i64 noundef %1, i64 noundef %2, ptr noundef readonly captures(none) %3, ptr noundef readonly captures(none) %4, i1 noundef zeroext %5, i1 noundef zeroext %6, ptr noundef readonly captures(none) %7) local_unnamed_addr #0 {
  %9 = alloca i64, align 8
  %10 = zext i1 %6 to i8
  %.not = icmp eq i64 %1, 67108864
  %11 = ptrtoint ptr %0 to i64
  %12 = and i64 %11, 67108863
  %.not35 = icmp eq i64 %12, 0
  %or.cond = and i1 %.not, %.not35
  br i1 %or.cond, label %13, label %55

13:                                               ; preds = %8
  %14 = load atomic i64, ptr @_mi_numa_node_count monotonic, align 8
  %15 = icmp eq i64 %14, 1
  br i1 %15, label %_mi_os_numa_node.exit.thread, label %_mi_os_numa_node.exit, !prof !3

_mi_os_numa_node.exit:                            ; preds = %13
  %16 = tail call i32 @_mi_os_numa_node_get(ptr noundef null) #9
  %17 = icmp sgt i32 %16, 0
  br i1 %17, label %18, label %_mi_os_numa_node.exit.thread

18:                                               ; preds = %_mi_os_numa_node.exit
  %19 = load atomic i64, ptr @_mi_numa_node_count monotonic, align 8
  %.not.i = icmp eq i64 %19, 0
  br i1 %.not.i, label %20, label %_mi_os_numa_node_count.exit, !prof !4

20:                                               ; preds = %18
  %21 = tail call i64 @_mi_os_numa_node_count_get() #9
  br label %_mi_os_numa_node_count.exit

_mi_os_numa_node_count.exit:                      ; preds = %18, %20
  %.0.i38 = phi i64 [ %21, %20 ], [ %19, %18 ]
  %22 = udiv i64 16, %.0.i38
  %23 = zext nneg i32 %16 to i64
  %24 = mul nuw nsw i64 %22, %23
  %25 = icmp samesign ugt i64 %24, 15
  %spec.store.select = select i1 %25, i64 0, i64 %24
  br label %_mi_os_numa_node.exit.thread

_mi_os_numa_node.exit.thread:                     ; preds = %13, %_mi_os_numa_node_count.exit, %_mi_os_numa_node.exit
  %.032 = phi i64 [ %spec.store.select, %_mi_os_numa_node_count.exit ], [ 0, %_mi_os_numa_node.exit ], [ 0, %13 ]
  tail call fastcc void @mi_segment_cache_purge(i1 noundef zeroext false, ptr noundef %7)
  call void @llvm.lifetime.start.p0(i64 8, ptr nonnull %9) #9
  %26 = call zeroext i1 @_mi_bitmap_try_find_from_claim(ptr noundef nonnull @cache_inuse, i64 noundef 16, i64 noundef %.032, i64 noundef 1, ptr noundef nonnull %9) #9
  br i1 %26, label %27, label %54

27:                                               ; preds = %_mi_os_numa_node.exit.thread
  %28 = load i64, ptr %9, align 8, !tbaa !5
  %29 = getelementptr inbounds nuw [1024 x %struct.mi_cache_slot_s], ptr @cache, i64 0, i64 %28
  store ptr %0, ptr %29, align 32, !tbaa !13
  %30 = getelementptr inbounds nuw i8, ptr %29, i64 8
  store i64 %2, ptr %30, align 8, !tbaa !17
  %31 = getelementptr inbounds nuw i8, ptr %29, i64 16
  store i8 %10, ptr %31, align 16, !tbaa !18
  %32 = getelementptr inbounds nuw i8, ptr %29, i64 280
  store atomic i64 0, ptr %32 monotonic, align 8
  %33 = getelementptr inbounds nuw i8, ptr %29, i64 24
  call void @llvm.memcpy.p0.p0.i64(ptr noundef nonnull align 8 dereferenceable(128) %33, ptr noundef nonnull align 8 dereferenceable(128) %3, i64 128, i1 false), !tbaa.struct !19
  %34 = getelementptr inbounds nuw i8, ptr %29, i64 152
  call void @llvm.memcpy.p0.p0.i64(ptr noundef nonnull align 8 dereferenceable(128) %34, ptr noundef nonnull align 8 dereferenceable(128) %4, i64 128, i1 false), !tbaa.struct !19
  br label %35

35:                                               ; preds = %35, %27
  %.057.i = phi i64 [ 0, %27 ], [ %38, %35 ]
  %36 = getelementptr inbounds nuw [16 x i64], ptr %3, i64 0, i64 %.057.i
  %37 = load i64, ptr %36, align 8, !tbaa !5
  %.not.i39 = icmp eq i64 %37, 0
  %38 = add nuw nsw i64 %.057.i, 1
  %exitcond.i = icmp ne i64 %38, 16
  %or.cond.not.i = select i1 %.not.i39, i1 %exitcond.i, i1 false
  br i1 %or.cond.not.i, label %35, label %mi_commit_mask_is_empty.exit, !llvm.loop !26

mi_commit_mask_is_empty.exit:                     ; preds = %35
  %brmerge = or i1 %5, %.not.i39
  %brmerge37 = or i1 %6, %brmerge
  br i1 %brmerge37, label %50, label %39

39:                                               ; preds = %mi_commit_mask_is_empty.exit
  %40 = call zeroext i1 @mi_option_is_enabled(i32 noundef 22) #9
  br i1 %40, label %41, label %50

41:                                               ; preds = %39
  %42 = call i64 @mi_option_get(i32 noundef 23) #9
  %43 = icmp eq i64 %42, 0
  br i1 %43, label %44, label %47

44:                                               ; preds = %41
  call void @_mi_abandoned_await_readers() #9
  %45 = getelementptr inbounds nuw i8, ptr %7, i64 8
  %46 = load ptr, ptr %45, align 8, !tbaa !21
  call fastcc void @mi_commit_mask_decommit(ptr noundef nonnull %33, ptr noundef %0, ptr noundef %46)
  call void @llvm.memset.p0.i64(ptr noundef nonnull align 8 dereferenceable(128) %34, i8 0, i64 128, i1 false), !tbaa !5
  br label %50

47:                                               ; preds = %41
  %48 = call i64 @_mi_clock_now() #9
  %49 = add nsw i64 %48, %42
  store atomic i64 %49, ptr %32 release, align 8
  br label %50

50:                                               ; preds = %44, %47, %mi_commit_mask_is_empty.exit, %39
  %51 = select i1 %5, ptr @cache_available_large, ptr @cache_available
  %52 = load i64, ptr %9, align 8, !tbaa !5
  %53 = call zeroext i1 @_mi_bitmap_unclaim(ptr noundef nonnull %51, i64 noundef 16, i64 noundef 1, i64 noundef %52) #9
  br label %54

54:                                               ; preds = %_mi_os_numa_node.exit.thread, %50
  call void @llvm.lifetime.end.p0(i64 8, ptr nonnull %9) #9
  br label %55

55:                                               ; preds = %8, %54
  %.0 = phi i1 [ %26, %54 ], [ false, %8 ]
  ret i1 %.0
}